(dp0
S'METTS MARK'
p1
(dp2
S'to_messages'
p3
I807
sS'deferral_payments'
p4
S'NaN'
p5
sS'to_poi_by_non_poi'
p6
F0.04708798017348203
sS'expenses'
p7
I94299
sS'poi'
p8
I00
sS'long_term_incentive'
p9
g5
sS'email_address'
p10
S'mark.metts@enron.com'
p11
sS'deferred_income'
p12
g5
sS'bonus_by_salary'
p13
I1
sS'bonus_salary_ratio'
p14
I1
sS'restricted_stock_deferred'
p15
g5
sS'shared_receipt_with_poi'
p16
I702
sS'loan_advances'
p17
g5
sS'from_messages'
p18
I29
sS'other'
p19
I1740
sS'director_fees'
p20
g5
sS'bonus'
p21
I600000
sS'total_stock_value'
p22
I585062
sS'from_poi_to_this_person'
p23
I38
sS'from_this_person_to_poi'
p24
I1
sS'restricted_stock'
p25
I585062
sS'salary'
p26
I365788
sS'from_poi_by_non_poi'
p27
F0.034482758620689655
sS'total_payments'
p28
I1061827
sS'exercised_stock_options'
p29
g5
ssS'BAXTER JOHN C'
p30
(dp31
g3
I0
sg4
I1295738
sg6
S'NaN'
p32
sg7
I11200
sg8
I00
sg9
I1586055
sg10
g5
sg12
I-1386055
sg13
I4
sg14
I4
sg15
g5
sg16
g5
sg17
g5
sg18
I0
sg19
I2660303
sg20
g5
sg21
I1200000
sg22
I10623258
sg23
I0
sg24
I0
sg25
I3942714
sg26
I267102
sg27
g32
sg28
I5634343
sg29
I6680544
ssS'ELLIOTT STEVEN'
p33
(dp34
g3
I0
sg4
g5
sg6
g32
sg7
I78552
sg8
I00
sg9
g5
sg10
S'steven.elliott@enron.com'
p35
sg12
I-400729
sg13
I2
sg14
I2
sg15
g5
sg16
g5
sg17
g5
sg18
I0
sg19
I12961
sg20
g5
sg21
I350000
sg22
I6678735
sg23
I0
sg24
I0
sg25
I1788391
sg26
I170941
sg27
g32
sg28
I211725
sg29
I4890344
ssS'CORDES WILLIAM R'
p36
(dp37
g3
I764
sg4
g5
sg6
F0.013089005235602094
sg7
g5
sg8
I00
sg9
g5
sg10
S'bill.cordes@enron.com'
p38
sg12
g5
sg13
g32
sg14
I0
sg15
g5
sg16
I58
sg17
g5
sg18
I12
sg19
g5
sg20
g5
sg21
g5
sg22
I1038185
sg23
I10
sg24
I0
sg25
I386335
sg26
g5
sg27
g32
sg28
g5
sg29
I651850
ssS'HANNON KEVIN P'
p39
(dp40
g3
I1045
sg4
g5
sg6
F0.03062200956937799
sg7
I34039
sg8
I01
sg9
I1617011
sg10
S'kevin.hannon@enron.com'
p41
sg12
I-3117011
sg13
I6
sg14
I6
sg15
g5
sg16
I1035
sg17
g5
sg18
I32
sg19
I11350
sg20
g5
sg21
I1500000
sg22
I6391065
sg23
I32
sg24
I21
sg25
I853064
sg26
I243293
sg27
F0.65625
sg28
I288682
sg29
I5538001
ssS'MORDAUNT KRISTINA M'
p42
(dp43
g3
I0
sg4
g5
sg6
g32
sg7
I35018
sg8
I00
sg9
g5
sg10
S'kristina.mordaunt@enron.com'
p44
sg12
g5
sg13
I1
sg14
I1
sg15
g5
sg16
g5
sg17
g5
sg18
I0
sg19
I1411
sg20
g5
sg21
I325000
sg22
I208510
sg23
I0
sg24
I0
sg25
I208510
sg26
I267093
sg27
g32
sg28
I628522
sg29
g5
ssS'MEYER ROCKFORD G'
p45
(dp46
g3
I232
sg4
I1848227
sg6
g32
sg7
g5
sg8
I00
sg9
g5
sg10
S'rockford.meyer@enron.com'
p47
sg12
g5
sg13
g32
sg14
I0
sg15
g5
sg16
I22
sg17
g5
sg18
I28
sg19
g5
sg20
g5
sg21
g5
sg22
I955873
sg23
I0
sg24
I0
sg25
I462384
sg26
g5
sg27
g32
sg28
I1848227
sg29
I493489
ssS'MCMAHON JEFFREY'
p48
(dp49
g3
I2355
sg4
g5
sg6
F0.024628450106157114
sg7
I137108
sg8
I00
sg9
I694862
sg10
S'jeffrey.mcmahon@enron.com'
p50
sg12
g5
sg13
I7
sg14
I7
sg15
g5
sg16
I2228
sg17
g5
sg18
I48
sg19
I297353
sg20
g5
sg21
I2600000
sg22
I1662855
sg23
I58
sg24
I26
sg25
I558801
sg26
I370448
sg27
F0.5416666666666666
sg28
I4099771
sg29
I1104054
ssS'HAEDICKE MARK E'
p51
(dp52
g3
I4009
sg4
I2157527
sg6
F0.04489897730107259
sg7
I76169
sg8
I00
sg9
I983346
sg10
S'mark.haedicke@enron.com'
p53
sg12
I-934484
sg13
I3
sg14
I3
sg15
I-329825
sg16
I1847
sg17
g5
sg18
I1941
sg19
I52382
sg20
g5
sg21
I1150000
sg22
I803094
sg23
I180
sg24
I61
sg25
I524169
sg26
I374125
sg27
F0.03142709943328181
sg28
I3859065
sg29
I608750
ssS'PIPER GREGORY F'
p54
(dp55
g3
I1238
sg4
I1130036
sg6
F0.049273021001615507
sg7
I43057
sg8
I00
sg9
g5
sg10
S'greg.piper@enron.com'
p56
sg12
I-33333
sg13
I2
sg14
I2
sg15
I-409554
sg16
I742
sg17
g5
sg18
I222
sg19
I778
sg20
g5
sg21
I400000
sg22
I880290
sg23
I61
sg24
I48
sg25
I409554
sg26
I197091
sg27
F0.21621621621621623
sg28
I1737629
sg29
I880290
ssS'HUMPHREY GENE E'
p57
(dp58
g3
I128
sg4
I2964506
sg6
F0.078125
sg7
I4994
sg8
I00
sg9
g5
sg10
S'gene.humphrey@enron.com'
p59
sg12
g5
sg13
g32
sg14
I0
sg15
g5
sg16
I119
sg17
g5
sg18
I17
sg19
g5
sg20
g5
sg21
g5
sg22
I2282768
sg23
I10
sg24
I17
sg25
g5
sg26
I130724
sg27
F1.0
sg28
I3100224
sg29
I2282768
ssS'NOLES JAMES L'
p60
(dp61
g3
I0
sg4
I774401
sg6
g32
sg7
g5
sg8
I00
sg9
g5
sg10
g5
sg12
g5
sg13
g32
sg14
I0
sg15
I-94556
sg16
g5
sg17
g5
sg18
I0
sg19
g5
sg20
g5
sg21
g5
sg22
I368705
sg23
I0
sg24
I0
sg25
I463261
sg26
g5
sg27
g32
sg28
I774401
sg29
g5
ssS'BLACHMAN JEREMY M'
p62
(dp63
g3
I2475
sg4
g5
sg6
F0.010101010101010102
sg7
I84208
sg8
I00
sg9
I831809
sg10
S'jeremy.blachman@enron.com'
p64
sg12
g5
sg13
I3
sg14
I3
sg15
g5
sg16
I2326
sg17
g5
sg18
I14
sg19
I272
sg20
g5
sg21
I850000
sg22
I954354
sg23
I25
sg24
I2
sg25
I189041
sg26
I248546
sg27
F0.14285714285714285
sg28
I2014835
sg29
I765313
ssS'SUNDE MARTIN'
p65
(dp66
g3
I2647
sg4
g5
sg6
F0.013978088401964487
sg7
g5
sg8
I00
sg9
I476451
sg10
S'marty.sunde@enron.com'
p67
sg12
g5
sg13
I2
sg14
I2
sg15
g5
sg16
I2565
sg17
g5
sg18
I38
sg19
I111122
sg20
g5
sg21
I700000
sg22
I698920
sg23
I37
sg24
I13
sg25
I698920
sg26
I257486
sg27
F0.34210526315789475
sg28
I1545059
sg29
g5
ssS'GIBBS DANA R'
p68
(dp69
g3
I169
sg4
I504610
sg6
g32
sg7
g5
sg8
I00
sg9
I461912
sg10
S'dana.gibbs@enron.com'
p70
sg12
g5
sg13
g32
sg14
I0
sg15
g5
sg16
I23
sg17
g5
sg18
I12
sg19
g5
sg20
g5
sg21
g5
sg22
I2218275
sg23
I0
sg24
I0
sg25
g5
sg26
g5
sg27
g32
sg28
I966522
sg29
I2218275
ssS'LOWRY CHARLES P'
p71
(dp72
g3
I0
sg4
g5
sg6
g32
sg7
g5
sg8
I00
sg9
g5
sg10
g5
sg12
g5
sg13
g32
sg14
I0
sg15
I-153686
sg16
g5
sg17
g5
sg18
I0
sg19
g5
sg20
g5
sg21
g5
sg22
I372205
sg23
I0
sg24
I0
sg25
I153686
sg26
g5
sg27
g32
sg28
g5
sg29
I372205
ssS'COLWELL WESLEY'
p73
(dp74
g3
I1758
sg4
I27610
sg6
F0.13651877133105803
sg7
I16514
sg8
I01
sg9
g5
sg10
S'wes.colwell@enron.com'
p75
sg12
I-144062
sg13
I4
sg14
I4
sg15
g5
sg16
I1132
sg17
g5
sg18
I40
sg19
I101740
sg20
g5
sg21
I1200000
sg22
I698242
sg23
I240
sg24
I11
sg25
I698242
sg26
I288542
sg27
F0.275
sg28
I1490344
sg29
g5
ssS'MULLER MARK S'
p76
(dp77
g3
I136
sg4
I842924
sg6
F0.08823529411764706
sg7
g5
sg8
I00
sg9
I1725545
sg10
S's..muller@enron.com'
p78
sg12
I-719000
sg13
I4
sg14
I4
sg15
g5
sg16
I114
sg17
g5
sg18
I16
sg19
I947
sg20
g5
sg21
I1100000
sg22
I1416848
sg23
I12
sg24
I0
sg25
I360528
sg26
I251654
sg27
g32
sg28
I3202070
sg29
I1056320
ssS'JACKSON CHARLENE R'
p79
(dp80
g3
I258
sg4
g5
sg6
F0.09689922480620156
sg7
I10181
sg8
I00
sg9
g5
sg10
S'charlene.jackson@enron.com'
p81
sg12
g5
sg13
I0
sg14
I0
sg15
g5
sg16
I117
sg17
g5
sg18
I56
sg19
I2435
sg20
g5
sg21
I250000
sg22
I725735
sg23
I25
sg24
I19
sg25
I540672
sg26
I288558
sg27
F0.3392857142857143
sg28
I551174
sg29
I185063
ssS'WESTFAHL RICHARD K'
p82
(dp83
g3
I0
sg4
g5
sg6
g32
sg7
I51870
sg8
I00
sg9
I256191
sg10
S'dick.westfahl@enron.com'
p84
sg12
I-10800
sg13
g32
sg14
I0
sg15
g5
sg16
g5
sg17
g5
sg18
I0
sg19
I401130
sg20
g5
sg21
g5
sg22
I384930
sg23
I0
sg24
I0
sg25
I384930
sg26
I63744
sg27
g32
sg28
I762135
sg29
g5
ssS'WALTERS GARETH W'
p85
(dp86
g3
I0
sg4
I53625
sg6
g32
sg7
I33785
sg8
I00
sg9
g5
sg10
g5
sg12
g5
sg13
g32
sg14
I0
sg15
g5
sg16
g5
sg17
g5
sg18
I0
sg19
g5
sg20
g5
sg21
g5
sg22
I1030329
sg23
I0
sg24
I0
sg25
g5
sg26
g5
sg27
g32
sg28
I87410
sg29
I1030329
ssS'WALLS JR ROBERT H'
p87
(dp88
g3
I671
sg4
g5
sg6
F0.02533532041728763
sg7
I50936
sg8
I00
sg9
I540751
sg10
S'rob.walls@enron.com'
p89
sg12
g5
sg13
I2
sg14
I2
sg15
g5
sg16
I215
sg17
g5
sg18
I146
sg19
I2
sg20
g5
sg21
I850000
sg22
I5898997
sg23
I17
sg24
I0
sg25
I1552453
sg26
I357091
sg27
g32
sg28
I1798780
sg29
I4346544
ssS'KITCHEN LOUISE'
p90
(dp91
g3
I8305
sg4
g5
sg6
F0.030222757375075255
sg7
I5774
sg8
I00
sg9
g5
sg10
S'louise.kitchen@enron.com'
p92
sg12
g5
sg13
I11
sg14
I11
sg15
g5
sg16
I3669
sg17
g5
sg18
I1728
sg19
I93925
sg20
g5
sg21
I3100000
sg22
I547143
sg23
I251
sg24
I194
sg25
I466101
sg26
I271442
sg27
F0.11226851851851852
sg28
I3471141
sg29
I81042
ssS'CHAN RONNIE'
p93
(dp94
g3
I0
sg4
g5
sg6
g32
sg7
g5
sg8
I00
sg9
g5
sg10
g5
sg12
I-98784
sg13
g32
sg14
I0
sg15
I-32460
sg16
g5
sg17
g5
sg18
I0
sg19
g5
sg20
I98784
sg21
g5
sg22
g5
sg23
I0
sg24
I0
sg25
I32460
sg26
g5
sg27
g32
sg28
g5
sg29
g5
ssS'BELFER ROBERT'
p95
(dp96
g3
I0
sg4
I-102500
sg6
g32
sg7
g5
sg8
I00
sg9
g5
sg10
g5
sg12
g5
sg13
g32
sg14
I0
sg15
I44093
sg16
g5
sg17
g5
sg18
I0
sg19
g5
sg20
I3285
sg21
g5
sg22
I-44093
sg23
I0
sg24
I0
sg25
g5
sg26
g5
sg27
g32
sg28
I102500
sg29
I3285
ssS'SHANKMAN JEFFREY A'
p97
(dp98
g3
I3221
sg4
g5
sg6
F0.029183483390251473
sg7
I178979
sg8
I00
sg9
I554422
sg10
S'jeffrey.shankman@enron.com'
p99
sg12
g5
sg13
I6
sg14
I6
sg15
g5
sg16
I1730
sg17
g5
sg18
I2681
sg19
I1191
sg20
g5
sg21
I2000000
sg22
I2072035
sg23
I94
sg24
I83
sg25
I630137
sg26
I304110
sg27
F0.030958597538232
sg28
I3038702
sg29
I1441898
ssS'WODRASKA JOHN'
p100
(dp101
g3
I0
sg4
g5
sg6
g32
sg7
g5
sg8
I00
sg9
g5
sg10
S'john.wodraska@enron.com'
p102
sg12
g5
sg13
g32
sg14
I0
sg15
g5
sg16
g5
sg17
g5
sg18
I0
sg19
I189583
sg20
g5
sg21
g5
sg22
g5
sg23
I0
sg24
I0
sg25
g5
sg26
g5
sg27
g32
sg28
I189583
sg29
g5
ssS'BERGSIEKER RICHARD P'
p103
(dp104
g3
I383
sg4
g5
sg6
F0.010443864229765013
sg7
I59175
sg8
I00
sg9
I180250
sg10
S'rick.bergsieker@enron.com'
p105
sg12
I-485813
sg13
I1
sg14
I1
sg15
g5
sg16
I233
sg17
g5
sg18
I59
sg19
I427316
sg20
g5
sg21
I250000
sg22
I659249
sg23
I4
sg24
I0
sg25
I659249
sg26
I187922
sg27
g32
sg28
I618850
sg29
g5
ssS'URQUHART JOHN A'
p106
(dp107
g3
I0
sg4
g5
sg6
g32
sg7
I228656
sg8
I00
sg9
g5
sg10
g5
sg12
I-36666
sg13
g32
sg14
I0
sg15
g5
sg16
g5
sg17
g5
sg18
I0
sg19
g5
sg20
I36666
sg21
g5
sg22
g5
sg23
I0
sg24
I0
sg25
g5
sg26
g5
sg27
g32
sg28
I228656
sg29
g5
ssS'BIBI PHILIPPE A'
p108
(dp109
g3
I1607
sg4
g5
sg6
F0.01431238332296204
sg7
I38559
sg8
I00
sg9
I369721
sg10
S'philippe.bibi@enron.com'
p110
sg12
g5
sg13
I4
sg14
I4
sg15
g5
sg16
I1336
sg17
g5
sg18
I40
sg19
I425688
sg20
g5
sg21
I1000000
sg22
I1843816
sg23
I23
sg24
I8
sg25
I378082
sg26
I213625
sg27
F0.2
sg28
I2047593
sg29
I1465734
ssS'RIEKER PAULA H'
p111
(dp112
g3
I1328
sg4
I214678
sg6
F0.02635542168674699
sg7
I33271
sg8
I01
sg9
g5
sg10
S'paula.rieker@enron.com'
p113
sg12
I-100000
sg13
I2
sg14
I2
sg15
g5
sg16
I1258
sg17
g5
sg18
I82
sg19
I1950
sg20
g5
sg21
I700000
sg22
I1918887
sg23
I35
sg24
I48
sg25
I283649
sg26
I249201
sg27
F0.5853658536585366
sg28
I1099100
sg29
I1635238
ssS'WHALEY DAVID A'
p114
(dp115
g3
I0
sg4
g5
sg6
g32
sg7
g5
sg8
I00
sg9
g5
sg10
g5
sg12
g5
sg13
g32
sg14
I0
sg15
g5
sg16
g5
sg17
g5
sg18
I0
sg19
g5
sg20
g5
sg21
g5
sg22
I98718
sg23
I0
sg24
I0
sg25
g5
sg26
g5
sg27
g32
sg28
g5
sg29
I98718
ssS'BECK SALLY W'
p116
(dp117
g3
I7315
sg4
g5
sg6
F0.01968557758031442
sg7
I37172
sg8
I00
sg9
g5
sg10
S'sally.beck@enron.com'
p118
sg12
g5
sg13
I3
sg14
I3
sg15
g5
sg16
I2639
sg17
g5
sg18
I4343
sg19
I566
sg20
g5
sg21
I700000
sg22
I126027
sg23
I144
sg24
I386
sg25
I126027
sg26
I231330
sg27
F0.08887865530739121
sg28
I969068
sg29
g5
ssS'HAUG DAVID L'
p119
(dp120
g3
I573
sg4
g5
sg6
F0.006980802792321117
sg7
I475
sg8
I00
sg9
g5
sg10
S'david.haug@enron.com'
p121
sg12
g5
sg13
g32
sg14
I0
sg15
g5
sg16
I471
sg17
g5
sg18
I19
sg19
g5
sg20
g5
sg21
g5
sg22
I2217299
sg23
I4
sg24
I7
sg25
I2217299
sg26
g5
sg27
F0.3684210526315789
sg28
I475
sg29
g5
ssS'ECHOLS JOHN B'
p122
(dp123
g3
I0
sg4
g5
sg6
g32
sg7
I21530
sg8
I00
sg9
I2234774
sg10
S'john.echols@enron.com'
p124
sg12
g5
sg13
I1
sg14
I1
sg15
g5
sg16
g5
sg17
g5
sg18
I0
sg19
I53775
sg20
g5
sg21
I200000
sg22
I1008941
sg23
I0
sg24
I0
sg25
I407503
sg26
I182245
sg27
g32
sg28
I2692324
sg29
I601438
ssS'MENDELSOHN JOHN'
p125
(dp126
g3
I0
sg4
g5
sg6
g32
sg7
I148
sg8
I00
sg9
g5
sg10
g5
sg12
I-103750
sg13
g32
sg14
I0
sg15
g5
sg16
g5
sg17
g5
sg18
I0
sg19
g5
sg20
I103750
sg21
g5
sg22
g5
sg23
I0
sg24
I0
sg25
g5
sg26
g5
sg27
g32
sg28
I148
sg29
g5
ssS'HICKERSON GARY J'
p127
(dp128
g3
I1320
sg4
g5
sg6
F0.030303030303030304
sg7
I98849
sg8
I00
sg9
I69223
sg10
S'gary.hickerson@enron.com'
p129
sg12
g5
sg13
I8
sg14
I8
sg15
g5
sg16
I900
sg17
g5
sg18
I27
sg19
I1936
sg20
g5
sg21
I1700000
sg22
I441096
sg23
I40
sg24
I1
sg25
I441096
sg26
I211788
sg27
F0.037037037037037035
sg28
I2081796
sg29
g5
ssS'CLINE KENNETH W'
p130
(dp131
g3
I0
sg4
g5
sg6
g32
sg7
g5
sg8
I00
sg9
g5
sg10
g5
sg12
g5
sg13
g32
sg14
I0
sg15
I-472568
sg16
g5
sg17
g5
sg18
I0
sg19
g5
sg20
g5
sg21
g5
sg22
I189518
sg23
I0
sg24
I0
sg25
I662086
sg26
g5
sg27
g32
sg28
g5
sg29
g5
ssS'LEWIS RICHARD'
p132
(dp133
g3
I952
sg4
g5
sg6
F0.01050420168067227
sg7
g5
sg8
I00
sg9
g5
sg10
S'richard.lewis@enron.com'
p134
sg12
g5
sg13
g32
sg14
I0
sg15
g5
sg16
I739
sg17
g5
sg18
I26
sg19
g5
sg20
g5
sg21
g5
sg22
I850477
sg23
I10
sg24
I0
sg25
g5
sg26
g5
sg27
g32
sg28
g5
sg29
I850477
ssS'HAYES ROBERT E'
p135
(dp136
g3
I504
sg4
I7961
sg6
F0.031746031746031744
sg7
g5
sg8
I00
sg9
g5
sg10
S'robert.hayes@enron.com'
p137
sg12
g5
sg13
g32
sg14
I0
sg15
g5
sg16
I50
sg17
g5
sg18
I12
sg19
g5
sg20
g5
sg21
g5
sg22
I151418
sg23
I16
sg24
I0
sg25
I151418
sg26
g5
sg27
g32
sg28
I7961
sg29
g5
ssS'KOPPER MICHAEL J'
p138
(dp139
g3
I0
sg4
g5
sg6
g32
sg7
I118134
sg8
I01
sg9
I602671
sg10
S'michael.kopper@enron.com'
p140
sg12
g5
sg13
I3
sg14
I3
sg15
g5
sg16
g5
sg17
g5
sg18
I0
sg19
I907502
sg20
g5
sg21
I800000
sg22
I985032
sg23
I0
sg24
I0
sg25
I985032
sg26
I224305
sg27
g32
sg28
I2652612
sg29
g5
ssS'LEFF DANIEL P'
p141
(dp142
g3
I2822
sg4
g5
sg6
F0.02374202693125443
sg7
g5
sg8
I00
sg9
I1387399
sg10
S'dan.leff@enron.com'
p143
sg12
g5
sg13
I3
sg14
I3
sg15
g5
sg16
I2672
sg17
g5
sg18
I63
sg19
I3083
sg20
g5
sg21
I1000000
sg22
I360528
sg23
I67
sg24
I14
sg25
I360528
sg26
I273746
sg27
F0.2222222222222222
sg28
I2664228
sg29
g5
ssS'LAVORATO JOHN J'
p144
(dp145
g3
I7259
sg4
g5
sg6
F0.07273729163796666
sg7
I49537
sg8
I00
sg9
I2035380
sg10
S'john.lavorato@enron.com'
p146
sg12
g5
sg13
I23
sg14
I23
sg15
g5
sg16
I3962
sg17
g5
sg18
I2585
sg19
I1552
sg20
g5
sg21
I8000000
sg22
I5167144
sg23
I528
sg24
I411
sg25
I1008149
sg26
I339288
sg27
F0.15899419729206962
sg28
I10425757
sg29
I4158995
ssS'BERBERIAN DAVID'
p147
(dp148
g3
I0
sg4
g5
sg6
g32
sg7
I11892
sg8
I00
sg9
g5
sg10
S'david.berberian@enron.com'
p149
sg12
g5
sg13
g32
sg14
I0
sg15
g5
sg16
g5
sg17
g5
sg18
I0
sg19
g5
sg20
g5
sg21
g5
sg22
I2493616
sg23
I0
sg24
I0
sg25
I869220
sg26
I216582
sg27
g32
sg28
I228474
sg29
I1624396
ssS'DETMERING TIMOTHY J'
p150
(dp151
g3
I0
sg4
I875307
sg6
g32
sg7
I52255
sg8
I00
sg9
I415657
sg10
S'timothy.detmering@enron.com'
p152
sg12
I-775241
sg13
I2
sg14
I2
sg15
I-315068
sg16
g5
sg17
g5
sg18
I0
sg19
I1105
sg20
g5
sg21
I425000
sg22
I2027865
sg23
I0
sg24
I0
sg25
I315068
sg26
I210500
sg27
g32
sg28
I1204583
sg29
I2027865
ssS'WAKEHAM JOHN'
p153
(dp154
g3
I0
sg4
g5
sg6
g32
sg7
I103773
sg8
I00
sg9
g5
sg10
g5
sg12
g5
sg13
g32
sg14
I0
sg15
g5
sg16
g5
sg17
g5
sg18
I0
sg19
g5
sg20
I109298
sg21
g5
sg22
g5
sg23
I0
sg24
I0
sg25
g5
sg26
g5
sg27
g32
sg28
I213071
sg29
g5
ssS'POWERS WILLIAM'
p155
(dp156
g3
I653
sg4
g5
sg6
g32
sg7
g5
sg8
I00
sg9
g5
sg10
S'ken.powers@enron.com'
p157
sg12
I-17500
sg13
g32
sg14
I0
sg15
g5
sg16
I12
sg17
g5
sg18
I26
sg19
g5
sg20
I17500
sg21
g5
sg22
g5
sg23
I0
sg24
I0
sg25
g5
sg26
g5
sg27
g32
sg28
g5
sg29
g5
ssS'GOLD JOSEPH'
p158
(dp159
g3
I0
sg4
g5
sg6
g32
sg7
g5
sg8
I00
sg9
I304805
sg10
S'joe.gold@enron.com'
p160
sg12
g5
sg13
I2
sg14
I2
sg15
g5
sg16
g5
sg17
g5
sg18
I0
sg19
I819288
sg20
g5
sg21
I750000
sg22
I877611
sg23
I0
sg24
I0
sg25
I441096
sg26
I272880
sg27
g32
sg28
I2146973
sg29
I436515
ssS'BANNANTINE JAMES M'
p161
(dp162
g3
I566
sg4
g5
sg6
F0.06890459363957598
sg7
I56301
sg8
I00
sg9
g5
sg10
S'james.bannantine@enron.com'
p163
sg12
I-5104
sg13
g32
sg14
I0
sg15
I-560222
sg16
I465
sg17
g5
sg18
I29
sg19
I864523
sg20
g5
sg21
g5
sg22
I5243487
sg23
I39
sg24
I0
sg25
I1757552
sg26
I477
sg27
g32
sg28
I916197
sg29
I4046157
ssS'DUNCAN JOHN H'
p164
(dp165
g3
I0
sg4
g5
sg6
g32
sg7
g5
sg8
I00
sg9
g5
sg10
g5
sg12
I-25000
sg13
g32
sg14
I0
sg15
g5
sg16
g5
sg17
g5
sg18
I0
sg19
g5
sg20
I102492
sg21
g5
sg22
I371750
sg23
I0
sg24
I0
sg25
g5
sg26
g5
sg27
g32
sg28
I77492
sg29
I371750
ssS'SHAPIRO RICHARD S'
p166
(dp167
g3
I15149
sg4
g5
sg6
F0.0048848108786058485
sg7
I137767
sg8
I00
sg9
g5
sg10
S'richard.shapiro@enron.com'
p168
sg12
g5
sg13
I2
sg14
I2
sg15
g5
sg16
I4527
sg17
g5
sg18
I1215
sg19
I705
sg20
g5
sg21
I650000
sg22
I987001
sg23
I74
sg24
I65
sg25
I379164
sg26
I269076
sg27
F0.053497942386831275
sg28
I1057548
sg29
I607837
ssS'SHERRIFF JOHN R'
p169
(dp170
g3
I3187
sg4
g5
sg6
F0.008785691873235017
sg7
g5
sg8
I00
sg9
I554422
sg10
S'john.sherriff@enron.com'
p171
sg12
g5
sg13
I3
sg14
I3
sg15
g5
sg16
I2103
sg17
g5
sg18
I92
sg19
I1852186
sg20
g5
sg21
I1500000
sg22
I3128982
sg23
I28
sg24
I23
sg25
I1293424
sg26
I428780
sg27
F0.25
sg28
I4335388
sg29
I1835558
ssS'SHELBY REX'
p172
(dp173
g3
I225
sg4
g5
sg6
F0.057777777777777775
sg7
I22884
sg8
I01
sg9
g5
sg10
S'rex.shelby@enron.com'
p174
sg12
I-4167
sg13
I0
sg14
I0
sg15
g5
sg16
I91
sg17
g5
sg18
I39
sg19
I1573324
sg20
g5
sg21
I200000
sg22
I2493616
sg23
I13
sg24
I14
sg25
I869220
sg26
I211844
sg27
F0.358974358974359
sg28
I2003885
sg29
I1624396
ssS'LEMAISTRE CHARLES'
p175
(dp176
g3
I0
sg4
g5
sg6
g32
sg7
g5
sg8
I00
sg9
g5
sg10
g5
sg12
I-25000
sg13
g32
sg14
I0
sg15
g5
sg16
g5
sg17
g5
sg18
I0
sg19
g5
sg20
I112492
sg21
g5
sg22
I412878
sg23
I0
sg24
I0
sg25
g5
sg26
g5
sg27
g32
sg28
I87492
sg29
I412878
ssS'DEFFNER JOSEPH M'
p177
(dp178
g3
I714
sg4
g5
sg6
F0.16106442577030813
sg7
I41626
sg8
I00
sg9
I335349
sg10
S'joseph.deffner@enron.com'
p179
sg12
g5
sg13
I2
sg14
I2
sg15
g5
sg16
I552
sg17
g5
sg18
I74
sg19
I25553
sg20
g5
sg21
I600000
sg22
I159211
sg23
I115
sg24
I4
sg25
I141833
sg26
I206121
sg27
F0.05405405405405406
sg28
I1208649
sg29
I17378
ssS'KISHKILL JOSEPH G'
p180
(dp181
g3
I0
sg4
g5
sg6
g32
sg7
I116335
sg8
I00
sg9
g5
sg10
S'joe.kishkill@enron.com'
p182
sg12
I-51042
sg13
g32
sg14
I0
sg15
g5
sg16
g5
sg17
g5
sg18
I0
sg19
I465357
sg20
g5
sg21
g5
sg22
I1034346
sg23
I0
sg24
I0
sg25
I1034346
sg26
I174246
sg27
g32
sg28
I704896
sg29
g5
ssS'WHALLEY LAWRENCE G'
p183
(dp184
g3
I6019
sg4
g5
sg6
F0.03090214321315833
sg7
I57838
sg8
I00
sg9
I808346
sg10
S'greg.whalley@enron.com'
p185
sg12
g5
sg13
I5
sg14
I5
sg15
g5
sg16
I3920
sg17
g5
sg18
I556
sg19
I301026
sg20
g5
sg21
I3000000
sg22
I6079137
sg23
I186
sg24
I24
sg25
I2796177
sg26
I510364
sg27
F0.04316546762589928
sg28
I4677574
sg29
I3282960
ssS'MCCONNELL MICHAEL S'
p186
(dp187
g3
I3329
sg4
g5
sg6
F0.02763592670471613
sg7
I81364
sg8
I00
sg9
I554422
sg10
S'mike.mcconnell@enron.com'
p188
sg12
g5
sg13
I3
sg14
I3
sg15
g5
sg16
I2189
sg17
g5
sg18
I2742
sg19
I540
sg20
g5
sg21
I1100000
sg22
I3101279
sg23
I92
sg24
I194
sg25
I1478269
sg26
I365038
sg27
F0.07075127644055434
sg28
I2101364
sg29
I1623010
ssS'PIRO JIM'
p189
(dp190
g3
I58
sg4
g5
sg6
g32
sg7
g5
sg8
I00
sg9
g5
sg10
S'jim.piro@enron.com'
p191
sg12
g5
sg13
g32
sg14
I0
sg15
g5
sg16
I3
sg17
g5
sg18
I16
sg19
g5
sg20
g5
sg21
g5
sg22
I47304
sg23
I0
sg24
I1
sg25
I47304
sg26
g5
sg27
F0.0625
sg28
g5
sg29
g5
ssS'DELAINEY DAVID W'
p192
(dp193
g3
I3093
sg4
g5
sg6
F0.02133850630455868
sg7
I86174
sg8
I01
sg9
I1294981
sg10
S'david.delainey@enron.com'
p194
sg12
g5
sg13
I8
sg14
I8
sg15
g5
sg16
I2097
sg17
g5
sg18
I3069
sg19
I1661
sg20
g5
sg21
I3000000
sg22
I3614261
sg23
I66
sg24
I609
sg25
I1323148
sg26
I365163
sg27
F0.198435972629521
sg28
I4747979
sg29
I2291113
ssS'SULLIVAN-SHAKLOVITZ COLLEEN'
p195
(dp196
g3
I0
sg4
I181993
sg6
g32
sg7
g5
sg8
I00
sg9
I554422
sg10
g5
sg12
g5
sg13
I0
sg14
I0
sg15
g5
sg16
g5
sg17
g5
sg18
I0
sg19
I162
sg20
g5
sg21
I100000
sg22
I1362375
sg23
I0
sg24
I0
sg25
g5
sg26
I162779
sg27
g32
sg28
I999356
sg29
I1362375
ssS'WROBEL BRUCE'
p197
(dp198
g3
I0
sg4
g5
sg6
g32
sg7
g5
sg8
I00
sg9
g5
sg10
g5
sg12
g5
sg13
g32
sg14
I0
sg15
g5
sg16
g5
sg17
g5
sg18
I0
sg19
g5
sg20
g5
sg21
g5
sg22
I139130
sg23
I0
sg24
I0
sg25
g5
sg26
g5
sg27
g32
sg28
g5
sg29
I139130
ssS'LINDHOLM TOD A'
p199
(dp200
g3
I0
sg4
I204075
sg6
g32
sg7
I57727
sg8
I00
sg9
I175000
sg10
S'tod.lindholm@enron.com'
p201
sg12
g5
sg13
I0
sg14
I0
sg15
g5
sg16
g5
sg17
g5
sg18
I0
sg19
I2630
sg20
g5
sg21
I200000
sg22
I3064208
sg23
I0
sg24
I0
sg25
I514847
sg26
I236457
sg27
g32
sg28
I875889
sg29
I2549361
ssS'MEYER JEROME J'
p202
(dp203
g3
I0
sg4
g5
sg6
g32
sg7
I2151
sg8
I00
sg9
g5
sg10
g5
sg12
I-38346
sg13
g32
sg14
I0
sg15
g5
sg16
g5
sg17
g5
sg18
I0
sg19
g5
sg20
I38346
sg21
g5
sg22
g5
sg23
I0
sg24
I0
sg25
g5
sg26
g5
sg27
g32
sg28
I2151
sg29
g5
ssS'LAY KENNETH L'
p204
(dp205
g3
I4273
sg4
I202911
sg6
F0.028785396676807865
sg7
I99832
sg8
I01
sg9
I3600000
sg10
S'kenneth.lay@enron.com'
p206
sg12
I-300000
sg13
I6
sg14
I6
sg15
g5
sg16
I2411
sg17
I81525000
sg18
I36
sg19
I10359729
sg20
g5
sg21
I7000000
sg22
I49110078
sg23
I123
sg24
I16
sg25
I14761694
sg26
I1072321
sg27
F0.4444444444444444
sg28
I103559793
sg29
I34348384
ssS'BUTTS ROBERT H'
p207
(dp208
g3
I0
sg4
g5
sg6
g32
sg7
I9410
sg8
I00
sg9
I175000
sg10
S'bob.butts@enron.com'
p209
sg12
I-75000
sg13
I2
sg14
I2
sg15
g5
sg16
g5
sg17
g5
sg18
I0
sg19
I150656
sg20
g5
sg21
I750000
sg22
I417619
sg23
I0
sg24
I0
sg25
I417619
sg26
I261516
sg27
g32
sg28
I1271582
sg29
g5
ssS'OLSON CINDY K'
p210
(dp211
g3
I1184
sg4
I77716
sg6
F0.016891891891891893
sg7
I63791
sg8
I00
sg9
I100000
sg10
S'cindy.olson@enron.com'
p212
sg12
g5
sg13
I2
sg14
I2
sg15
g5
sg16
I856
sg17
g5
sg18
I52
sg19
I972
sg20
g5
sg21
I750000
sg22
I2606763
sg23
I20
sg24
I15
sg25
I969729
sg26
I329078
sg27
F0.28846153846153844
sg28
I1321557
sg29
I1637034
ssS'MCDONALD REBECCA'
p213
(dp214
g3
I894
sg4
g5
sg6
F0.06040268456375839
sg7
g5
sg8
I00
sg9
g5
sg10
S'rebecca.mcdonald@enron.com'
p215
sg12
g5
sg13
g32
sg14
I0
sg15
g5
sg16
I720
sg17
g5
sg18
I13
sg19
g5
sg20
g5
sg21
g5
sg22
I1691366
sg23
I54
sg24
I1
sg25
I934065
sg26
g5
sg27
F0.07692307692307693
sg28
g5
sg29
I757301
ssS'CUMBERLAND MICHAEL S'
p216
(dp217
g3
I0
sg4
g5
sg6
g32
sg7
I22344
sg8
I00
sg9
I275000
sg10
g5
sg12
g5
sg13
I1
sg14
I1
sg15
g5
sg16
g5
sg17
g5
sg18
I0
sg19
I713
sg20
g5
sg21
I325000
sg22
I207940
sg23
I0
sg24
I0
sg25
I207940
sg26
I184899
sg27
g32
sg28
I807956
sg29
g5
ssS'GAHN ROBERT S'
p218
(dp219
g3
I0
sg4
I73122
sg6
g32
sg7
I50080
sg8
I00
sg9
g5
sg10
g5
sg12
I-1042
sg13
I2
sg14
I2
sg15
g5
sg16
g5
sg17
g5
sg18
I0
sg19
I76547
sg20
g5
sg21
I509870
sg22
I318607
sg23
I0
sg24
I0
sg25
I235370
sg26
I192008
sg27
g32
sg28
I900585
sg29
I83237
ssS'BADUM JAMES P'
p220
(dp221
g3
I0
sg4
I178980
sg6
g32
sg7
I3486
sg8
I00
sg9
g5
sg10
g5
sg12
g5
sg13
g32
sg14
I0
sg15
g5
sg16
g5
sg17
g5
sg18
I0
sg19
g5
sg20
g5
sg21
g5
sg22
I257817
sg23
I0
sg24
I0
sg25
g5
sg26
g5
sg27
g32
sg28
I182466
sg29
I257817
ssS'HERMANN ROBERT J'
p222
(dp223
g3
I0
sg4
g5
sg6
g32
sg7
I48357
sg8
I00
sg9
I150000
sg10
S'robert.hermann@enron.com'
p224
sg12
I-280000
sg13
I2
sg14
I2
sg15
g5
sg16
g5
sg17
g5
sg18
I0
sg19
I416441
sg20
g5
sg21
I700000
sg22
I668132
sg23
I0
sg24
I0
sg25
I480632
sg26
I262663
sg27
g32
sg28
I1297461
sg29
I187500
ssS'FALLON JAMES B'
p225
(dp226
g3
I1755
sg4
g5
sg6
F0.023931623931623933
sg7
I95924
sg8
I00
sg9
I374347
sg10
S'jim.fallon@enron.com'
p227
sg12
g5
sg13
I8
sg14
I8
sg15
g5
sg16
I1604
sg17
g5
sg18
I75
sg19
I401481
sg20
g5
sg21
I2500000
sg22
I2332399
sg23
I42
sg24
I37
sg25
I1392142
sg26
I304588
sg27
F0.49333333333333335
sg28
I3676340
sg29
I940257
ssS'GATHMANN WILLIAM D'
p228
(dp229
g3
I0
sg4
g5
sg6
g32
sg7
g5
sg8
I00
sg9
g5
sg10
g5
sg12
g5
sg13
g32
sg14
I0
sg15
I-72419
sg16
g5
sg17
g5
sg18
I0
sg19
g5
sg20
g5
sg21
g5
sg22
I1945360
sg23
I0
sg24
I0
sg25
I264013
sg26
g5
sg27
g32
sg28
g5
sg29
I1753766
ssS'HORTON STANLEY C'
p230
(dp231
g3
I2350
sg4
I3131860
sg6
F0.01872340425531915
sg7
g5
sg8
I00
sg9
g5
sg10
S'stanley.horton@enron.com'
p232
sg12
g5
sg13
g32
sg14
I0
sg15
g5
sg16
I1074
sg17
g5
sg18
I1073
sg19
g5
sg20
g5
sg21
g5
sg22
I7256648
sg23
I44
sg24
I15
sg25
I2046079
sg26
g5
sg27
F0.013979496738117428
sg28
I3131860
sg29
I5210569
ssS'BOWEN JR RAYMOND M'
p233
(dp234
g3
I1858
sg4
g5
sg6
F0.07534983853606028
sg7
I65907
sg8
I01
sg9
I974293
sg10
S'raymond.bowen@enron.com'
p235
sg12
I-833
sg13
I4
sg14
I4
sg15
g5
sg16
I1593
sg17
g5
sg18
I27
sg19
I1621
sg20
g5
sg21
I1350000
sg22
I252055
sg23
I140
sg24
I15
sg25
I252055
sg26
I278601
sg27
F0.5555555555555556
sg28
I2669589
sg29
g5
ssS'GILLIS JOHN'
p236
(dp237
g3
I0
sg4
g5
sg6
g32
sg7
g5
sg8
I00
sg9
g5
sg10
g5
sg12
g5
sg13
g32
sg14
I0
sg15
g5
sg16
g5
sg17
g5
sg18
I0
sg19
g5
sg20
g5
sg21
g5
sg22
I85641
sg23
I0
sg24
I0
sg25
I75838
sg26
g5
sg27
g32
sg28
g5
sg29
I9803
ssS'FITZGERALD JAY L'
p238
(dp239
g3
I936
sg4
g5
sg6
F0.0010683760683760685
sg7
I23870
sg8
I00
sg9
I556416
sg10
S'jay.fitzgerald@enron.com'
p240
sg12
g5
sg13
I1
sg14
I1
sg15
g5
sg16
I723
sg17
g5
sg18
I16
sg19
I285414
sg20
g5
sg21
I350000
sg22
I1621236
sg23
I1
sg24
I8
sg25
I956775
sg26
I199157
sg27
F0.5
sg28
I1414857
sg29
I664461
ssS'MORAN MICHAEL P'
p241
(dp242
g3
I672
sg4
g5
sg6
g32
sg7
g5
sg8
I00
sg9
g5
sg10
S'michael.moran@enron.com'
p243
sg12
g5
sg13
g32
sg14
I0
sg15
g5
sg16
I127
sg17
g5
sg18
I19
sg19
g5
sg20
g5
sg21
g5
sg22
I221141
sg23
I0
sg24
I0
sg25
I161602
sg26
g5
sg27
g32
sg28
g5
sg29
I59539
ssS'REDMOND BRIAN L'
p244
(dp245
g3
I1671
sg4
g5
sg6
F0.12208258527827648
sg7
I14689
sg8
I00
sg9
g5
sg10
S'brian.redmond@enron.com'
p246
sg12
g5
sg13
g32
sg14
I0
sg15
g5
sg16
I1063
sg17
g5
sg18
I221
sg19
g5
sg20
g5
sg21
g5
sg22
I7890324
sg23
I204
sg24
I49
sg25
I381285
sg26
I96840
sg27
F0.22171945701357465
sg28
I111529
sg29
I7509039
ssS'BAZELIDES PHILIP J'
p247
(dp248
g3
I0
sg4
I684694
sg6
g32
sg7
g5
sg8
I00
sg9
I93750
sg10
g5
sg12
g5
sg13
g32
sg14
I0
sg15
g5
sg16
g5
sg17
g5
sg18
I0
sg19
I874
sg20
g5
sg21
g5
sg22
I1599641
sg23
I0
sg24
I0
sg25
g5
sg26
I80818
sg27
g32
sg28
I860136
sg29
I1599641
ssS'BELDEN TIMOTHY N'
p249
(dp250
g3
I7991
sg4
I2144013
sg6
F0.028532098610937303
sg7
I17355
sg8
I01
sg9
g5
sg10
S'tim.belden@enron.com'
p251
sg12
I-2334434
sg13
I24
sg14
I24
sg15
g5
sg16
I5521
sg17
g5
sg18
I484
sg19
I210698
sg20
g5
sg21
I5249999
sg22
I1110705
sg23
I228
sg24
I108
sg25
I157569
sg26
I213999
sg27
F0.2231404958677686
sg28
I5501630
sg29
I953136
ssS'DIMICHELE RICHARD G'
p252
(dp253
g3
I0
sg4
g5
sg6
g32
sg7
I35812
sg8
I00
sg9
I694862
sg10
S'richard.dimichele@enron.com'
p254
sg12
g5
sg13
I3
sg14
I3
sg15
g5
sg16
g5
sg17
g5
sg18
I0
sg19
I374689
sg20
g5
sg21
I1000000
sg22
I8317782
sg23
I0
sg24
I0
sg25
I126027
sg26
I262788
sg27
g32
sg28
I2368151
sg29
I8191755
ssS'DURAN WILLIAM D'
p255
(dp256
g3
I904
sg4
g5
sg6
F0.1172566371681416
sg7
I25785
sg8
I00
sg9
I1105218
sg10
S'w.duran@enron.com'
p257
sg12
g5
sg13
I3
sg14
I3
sg15
g5
sg16
I599
sg17
g5
sg18
I12
sg19
I1568
sg20
g5
sg21
I750000
sg22
I1640910
sg23
I106
sg24
I3
sg25
I189041
sg26
I210692
sg27
F0.25
sg28
I2093263
sg29
I1451869
ssS'THORN TERENCE H'
p258
(dp259
g3
I266
sg4
I16586
sg6
g32
sg7
I46145
sg8
I00
sg9
I200000
sg10
S'terence.thorn@enron.com'
p260
sg12
g5
sg13
g32
sg14
I0
sg15
g5
sg16
I73
sg17
g5
sg18
I41
sg19
I426629
sg20
g5
sg21
g5
sg22
I4817796
sg23
I0
sg24
I0
sg25
I365320
sg26
I222093
sg27
g32
sg28
I911453
sg29
I4452476
ssS'FASTOW ANDREW S'
p261
(dp262
g3
I0
sg4
g5
sg6
g32
sg7
I55921
sg8
I01
sg9
I1736055
sg10
S'andrew.fastow@enron.com'
p263
sg12
I-1386055
sg13
I2
sg14
I2
sg15
g5
sg16
g5
sg17
g5
sg18
I0
sg19
I277464
sg20
g5
sg21
I1300000
sg22
I1794412
sg23
I0
sg24
I0
sg25
I1794412
sg26
I440698
sg27
g32
sg28
I2424083
sg29
g5
ssS'FOY JOE'
p264
(dp265
g3
I57
sg4
I181755
sg6
g32
sg7
g5
sg8
I00
sg9
g5
sg10
S'tracy.foy@enron.com'
p266
sg12
g5
sg13
g32
sg14
I0
sg15
g5
sg16
I2
sg17
g5
sg18
I13
sg19
g5
sg20
g5
sg21
g5
sg22
I343434
sg23
I0
sg24
I0
sg25
g5
sg26
g5
sg27
g32
sg28
I181755
sg29
I343434
ssS'CALGER CHRISTOPHER F'
p267
(dp268
g3
I2598
sg4
g5
sg6
F0.07659738260200154
sg7
I35818
sg8
I01
sg9
I375304
sg10
S'christopher.calger@enron.com'
p269
sg12
I-262500
sg13
I5
sg14
I5
sg15
g5
sg16
I2188
sg17
g5
sg18
I144
sg19
I486
sg20
g5
sg21
I1250000
sg22
I126027
sg23
I199
sg24
I25
sg25
I126027
sg26
I240189
sg27
F0.1736111111111111
sg28
I1639297
sg29
g5
ssS'RICE KENNETH D'
p270
(dp271
g3
I905
sg4
g5
sg6
F0.04640883977900553
sg7
I46950
sg8
I01
sg9
I1617011
sg10
S'ken.rice@enron.com'
p272
sg12
I-3504386
sg13
I4
sg14
I4
sg15
g5
sg16
I864
sg17
g5
sg18
I18
sg19
I174839
sg20
g5
sg21
I1750000
sg22
I22542539
sg23
I42
sg24
I4
sg25
I2748364
sg26
I420636
sg27
F0.2222222222222222
sg28
I505050
sg29
I19794175
ssS'KAMINSKI WINCENTY J'
p273
(dp274
g3
I4607
sg4
g5
sg6
F0.008899500759713479
sg7
I83585
sg8
I00
sg9
I323466
sg10
S'vince.kaminski@enron.com'
p275
sg12
g5
sg13
I1
sg14
I1
sg15
g5
sg16
I583
sg17
g5
sg18
I14368
sg19
I4669
sg20
g5
sg21
I400000
sg22
I976037
sg23
I41
sg24
I171
sg25
I126027
sg26
I275101
sg27
F0.011901447661469933
sg28
I1086821
sg29
I850010
ssS'LOCKHART EUGENE E'
p276
(dp277
g3
I0
sg4
g5
sg6
g32
sg7
g5
sg8
I00
sg9
g5
sg10
g5
sg12
g5
sg13
g32
sg14
I0
sg15
g5
sg16
g5
sg17
g5
sg18
I0
sg19
g5
sg20
g5
sg21
g5
sg22
g5
sg23
I0
sg24
I0
sg25
g5
sg26
g5
sg27
g32
sg28
g5
sg29
g5
ssS'COX DAVID'
p278
(dp279
g3
I102
sg4
g5
sg6
g32
sg7
I27861
sg8
I00
sg9
g5
sg10
S'chip.cox@enron.com'
p280
sg12
I-41250
sg13
I2
sg14
I2
sg15
g5
sg16
I71
sg17
g5
sg18
I33
sg19
I494
sg20
g5
sg21
I800000
sg22
I495633
sg23
I0
sg24
I4
sg25
I378082
sg26
I314288
sg27
F0.12121212121212122
sg28
I1101393
sg29
I117551
ssS'OVERDYKE JR JERE C'
p281
(dp282
g3
I0
sg4
g5
sg6
g32
sg7
I18834
sg8
I00
sg9
I135836
sg10
S'jere.overdyke@enron.com'
p283
sg12
g5
sg13
g32
sg14
I0
sg15
g5
sg16
g5
sg17
g5
sg18
I0
sg19
I176
sg20
g5
sg21
g5
sg22
I7307594
sg23
I0
sg24
I0
sg25
I2041016
sg26
I94941
sg27
g32
sg28
I249787
sg29
I5266578
ssS'PEREIRA PAULO V. FERRAZ'
p284
(dp285
g3
I0
sg4
g5
sg6
g32
sg7
I27942
sg8
I00
sg9
g5
sg10
g5
sg12
I-101250
sg13
g32
sg14
I0
sg15
g5
sg16
g5
sg17
g5
sg18
I0
sg19
g5
sg20
I101250
sg21
g5
sg22
g5
sg23
I0
sg24
I0
sg25
g5
sg26
g5
sg27
g32
sg28
I27942
sg29
g5
ssS'STABLER FRANK'
p286
(dp287
g3
I0
sg4
g5
sg6
g32
sg7
I16514
sg8
I00
sg9
g5
sg10
S'frank.stabler@enron.com'
p288
sg12
g5
sg13
I2
sg14
I2
sg15
g5
sg16
g5
sg17
g5
sg18
I0
sg19
I356071
sg20
g5
sg21
I500000
sg22
I511734
sg23
I0
sg24
I0
sg25
I511734
sg26
I239502
sg27
g32
sg28
I1112087
sg29
g5
ssS'SKILLING JEFFREY K'
p289
(dp290
g3
I3627
sg4
g5
sg6
F0.0242624758753791
sg7
I29336
sg8
I01
sg9
I1920000
sg10
S'jeff.skilling@enron.com'
p291
sg12
g5
sg13
I5
sg14
I5
sg15
g5
sg16
I2042
sg17
g5
sg18
I108
sg19
I22122
sg20
g5
sg21
I5600000
sg22
I26093672
sg23
I88
sg24
I30
sg25
I6843672
sg26
I1111258
sg27
F0.2777777777777778
sg28
I8682716
sg29
I19250000
ssS'BLAKE JR. NORMAN P'
p292
(dp293
g3
I0
sg4
g5
sg6
g32
sg7
I1279
sg8
I00
sg9
g5
sg10
g5
sg12
I-113784
sg13
g32
sg14
I0
sg15
g5
sg16
g5
sg17
g5
sg18
I0
sg19
g5
sg20
I113784
sg21
g5
sg22
g5
sg23
I0
sg24
I0
sg25
g5
sg26
g5
sg27
g32
sg28
I1279
sg29
g5
ssS'SHERRICK JEFFREY B'
p294
(dp295
g3
I613
sg4
g5
sg6
F0.0636215334420881
sg7
g5
sg8
I00
sg9
g5
sg10
S'jeffrey.sherrick@enron.com'
p296
sg12
g5
sg13
g32
sg14
I0
sg15
g5
sg16
I583
sg17
g5
sg18
I25
sg19
g5
sg20
g5
sg21
g5
sg22
I1832468
sg23
I39
sg24
I18
sg25
I405999
sg26
g5
sg27
F0.72
sg28
g5
sg29
I1426469
ssS'PRENTICE JAMES'
p297
(dp298
g3
I0
sg4
I564348
sg6
g32
sg7
g5
sg8
I00
sg9
g5
sg10
S'james.prentice@enron.com'
p299
sg12
g5
sg13
g32
sg14
I0
sg15
g5
sg16
g5
sg17
g5
sg18
I0
sg19
g5
sg20
g5
sg21
g5
sg22
I1095040
sg23
I0
sg24
I0
sg25
I208809
sg26
g5
sg27
g32
sg28
I564348
sg29
I886231
ssS'GRAY RODNEY'
p300
(dp301
g3
I0
sg4
I93585
sg6
g32
sg7
g5
sg8
I00
sg9
I365625
sg10
g5
sg12
g5
sg13
g32
sg14
I0
sg15
g5
sg16
g5
sg17
g5
sg18
I0
sg19
I680833
sg20
g5
sg21
g5
sg22
g5
sg23
I0
sg24
I0
sg25
g5
sg26
I6615
sg27
g32
sg28
I1146658
sg29
g5
ssS'THE TRAVEL AGENCY IN THE PARK'
p302
(dp303
g3
I0
sg4
g5
sg6
g32
sg7
g5
sg8
I00
sg9
g5
sg10
g5
sg12
g5
sg13
g32
sg14
I0
sg15
g5
sg16
g5
sg17
g5
sg18
I0
sg19
I362096
sg20
g5
sg21
g5
sg22
g5
sg23
I0
sg24
I0
sg25
g5
sg26
g5
sg27
g32
sg28
I362096
sg29
g5
ssS'UMANOFF ADAM S'
p304
(dp305
g3
I111
sg4
g5
sg6
F0.10810810810810811
sg7
I53122
sg8
I00
sg9
g5
sg10
S'adam.umanoff@enron.com'
p306
sg12
g5
sg13
I2
sg14
I2
sg15
g5
sg16
I41
sg17
g5
sg18
I18
sg19
g5
sg20
g5
sg21
I788750
sg22
g5
sg23
I12
sg24
I0
sg25
g5
sg26
I288589
sg27
g32
sg28
I1130461
sg29
g5
ssS'KEAN STEVEN J'
p307
(dp308
g3
I12754
sg4
g5
sg6
F0.010976948408342482
sg7
I41953
sg8
I00
sg9
I300000
sg10
S'steven.kean@enron.com'
p309
sg12
g5
sg13
I2
sg14
I2
sg15
g5
sg16
I3639
sg17
g5
sg18
I6759
sg19
I1231
sg20
g5
sg21
I1000000
sg22
I6153642
sg23
I140
sg24
I387
sg25
I4131594
sg26
I404338
sg27
F0.05725699067909454
sg28
I1747522
sg29
I2022048
ssS'FOWLER PEGGY'
p310
(dp311
g3
I517
sg4
g5
sg6
g32
sg7
g5
sg8
I00
sg9
g5
sg10
S'kulvinder.fowler@enron.com'
p312
sg12
g5
sg13
g32
sg14
I0
sg15
g5
sg16
I10
sg17
g5
sg18
I36
sg19
g5
sg20
g5
sg21
g5
sg22
I1884748
sg23
I0
sg24
I0
sg25
I560170
sg26
g5
sg27
g32
sg28
g5
sg29
I1324578
ssS'WASAFF GEORGE'
p313
(dp314
g3
I400
sg4
I831299
sg6
F0.055
sg7
g5
sg8
I00
sg9
I200000
sg10
S'george.wasaff@enron.com'
p315
sg12
I-583325
sg13
I1
sg14
I1
sg15
g5
sg16
I337
sg17
g5
sg18
I30
sg19
I1425
sg20
g5
sg21
I325000
sg22
I2056427
sg23
I22
sg24
I7
sg25
I388167
sg26
I259996
sg27
F0.23333333333333334
sg28
I1034395
sg29
I1668260
ssS'WHITE JR THOMAS E'
p316
(dp317
g3
I0
sg4
g5
sg6
g32
sg7
I81353
sg8
I00
sg9
g5
sg10
S'thomas.white@enron.com'
p318
sg12
g5
sg13
I1
sg14
I1
sg15
g5
sg16
g5
sg17
g5
sg18
I0
sg19
I1085463
sg20
g5
sg21
I450000
sg22
I15144123
sg23
I0
sg24
I0
sg25
I13847074
sg26
I317543
sg27
g32
sg28
I1934359
sg29
I1297049
ssS'CHRISTODOULOU DIOMEDES'
p319
(dp320
g3
I0
sg4
g5
sg6
g32
sg7
g5
sg8
I00
sg9
g5
sg10
S'diomedes.christodoulou@enron.com'
p321
sg12
g5
sg13
g32
sg14
I0
sg15
g5
sg16
g5
sg17
g5
sg18
I0
sg19
g5
sg20
g5
sg21
g5
sg22
I6077885
sg23
I0
sg24
I0
sg25
I950730
sg26
g5
sg27
g32
sg28
g5
sg29
I5127155
ssS'ALLEN PHILLIP K'
p322
(dp323
g3
I2902
sg4
I2869717
sg6
F0.016195727084769126
sg7
I13868
sg8
I00
sg9
I304805
sg10
S'phillip.allen@enron.com'
p324
sg12
I-3081055
sg13
I20
sg14
I20
sg15
I-126027
sg16
I1407
sg17
g5
sg18
I2195
sg19
I152
sg20
g5
sg21
I4175000
sg22
I1729541
sg23
I47
sg24
I65
sg25
I126027
sg26
I201955
sg27
F0.029612756264236904
sg28
I4484442
sg29
I1729541
ssS'SHARP VICTORIA T'
p325
(dp326
g3
I3136
sg4
I187469
sg6
F0.007653061224489796
sg7
I116337
sg8
I00
sg9
I422158
sg10
S'vicki.sharp@enron.com'
p327
sg12
g5
sg13
I2
sg14
I2
sg15
g5
sg16
I2477
sg17
g5
sg18
I136
sg19
I2401
sg20
g5
sg21
I600000
sg22
I494136
sg23
I24
sg24
I6
sg25
I213063
sg26
I248146
sg27
F0.04411764705882353
sg28
I1576511
sg29
I281073
ssS'JAEDICKE ROBERT'
p328
(dp329
g3
I0
sg4
g5
sg6
g32
sg7
g5
sg8
I00
sg9
g5
sg10
g5
sg12
I-25000
sg13
g32
sg14
I0
sg15
I-44093
sg16
g5
sg17
g5
sg18
I0
sg19
g5
sg20
I108750
sg21
g5
sg22
I431750
sg23
I0
sg24
I0
sg25
I44093
sg26
g5
sg27
g32
sg28
I83750
sg29
I431750
ssS'WINOKUR JR. HERBERT S'
p330
(dp331
g3
I0
sg4
g5
sg6
g32
sg7
I1413
sg8
I00
sg9
g5
sg10
g5
sg12
I-25000
sg13
g32
sg14
I0
sg15
g5
sg16
g5
sg17
g5
sg18
I0
sg19
g5
sg20
I108579
sg21
g5
sg22
g5
sg23
I0
sg24
I0
sg25
g5
sg26
g5
sg27
g32
sg28
I84992
sg29
g5
ssS'BROWN MICHAEL'
p332
(dp333
g3
I1486
sg4
g5
sg6
F0.008748317631224764
sg7
I49288
sg8
I00
sg9
g5
sg10
S'michael.brown@enron.com'
p334
sg12
g5
sg13
g32
sg14
I0
sg15
g5
sg16
I761
sg17
g5
sg18
I41
sg19
g5
sg20
g5
sg21
g5
sg22
g5
sg23
I13
sg24
I1
sg25
g5
sg26
g5
sg27
F0.024390243902439025
sg28
I49288
sg29
g5
ssS'MCCLELLAN GEORGE'
p335
(dp336
g3
I1744
sg4
g5
sg6
F0.02981651376146789
sg7
I228763
sg8
I00
sg9
g5
sg10
S'george.mcclellan@enron.com'
p337
sg12
I-125000
sg13
I3
sg14
I3
sg15
g5
sg16
I1469
sg17
g5
sg18
I49
sg19
I51587
sg20
g5
sg21
I900000
sg22
I947861
sg23
I52
sg24
I0
sg25
I441096
sg26
I263413
sg27
g32
sg28
I1318763
sg29
I506765
ssS'HUGHES JAMES A'
p338
(dp339
g3
I719
sg4
g5
sg6
F0.048678720445062586
sg7
g5
sg8
I00
sg9
g5
sg10
S'james.hughes@enron.com'
p340
sg12
g5
sg13
g32
sg14
I0
sg15
g5
sg16
I589
sg17
g5
sg18
I34
sg19
g5
sg20
g5
sg21
g5
sg22
I1118394
sg23
I35
sg24
I5
sg25
I363428
sg26
g5
sg27
F0.14705882352941177
sg28
g5
sg29
I754966
ssS'REYNOLDS LAWRENCE'
p341
(dp342
g3
I0
sg4
I51365
sg6
g32
sg7
I8409
sg8
I00
sg9
I156250
sg10
g5
sg12
I-200000
sg13
I1
sg14
I1
sg15
I-140264
sg16
g5
sg17
g5
sg18
I0
sg19
I202052
sg20
g5
sg21
I100000
sg22
I4221891
sg23
I0
sg24
I0
sg25
I201483
sg26
I76399
sg27
g32
sg28
I394475
sg29
I4160672
ssS'PICKERING MARK R'
p343
(dp344
g3
I898
sg4
g5
sg6
F0.0077951002227171495
sg7
I31653
sg8
I00
sg9
g5
sg10
S'mark.pickering@enron.com'
p345
sg12
g5
sg13
I0
sg14
I0
sg15
g5
sg16
I728
sg17
I400000
sg18
I67
sg19
g5
sg20
g5
sg21
I300000
sg22
I28798
sg23
I7
sg24
I0
sg25
g5
sg26
I655037
sg27
g32
sg28
I1386690
sg29
I28798
ssS'BHATNAGAR SANJAY'
p346
(dp347
g3
I523
sg4
g5
sg6
g32
sg7
g5
sg8
I00
sg9
g5
sg10
S'sanjay.bhatnagar@enron.com'
p348
sg12
g5
sg13
g32
sg14
I0
sg15
I15456290
sg16
I463
sg17
g5
sg18
I29
sg19
I137864
sg20
I137864
sg21
g5
sS'total_stock_value'
p349
S'NaN'
p350
sg23
I0
sg24
I1
sg25
I-2604490
sg26
g5
sg27
F0.034482758620689655
sg28
I15456290
sg29
I2604490
ssS'CARTER REBECCA C'
p351
(dp352
g3
I312
sg4
g5
sg6
F0.09294871794871795
sg7
g5
sg8
I00
sg9
I75000
sg10
S'rebecca.carter@enron.com'
p353
sg12
I-159792
sg13
I1
sg14
I1
sg15
I-307301
sg16
I196
sg17
g5
sg18
I15
sg19
I540
sg20
g5
sg21
I300000
sg22
g5
sg23
I29
sg24
I7
sg25
I307301
sg26
I261809
sg27
F0.4666666666666667
sg28
I477557
sg29
g5
ssS'BUCHANAN HAROLD G'
p354
(dp355
g3
I1088
sg4
g5
sg6
g32
sg7
I600
sg8
I00
sg9
I304805
sg10
S'john.buchanan@enron.com'
p356
sg12
g5
sg13
I2
sg14
I2
sg15
g5
sg16
I23
sg17
g5
sg18
I125
sg19
I1215
sg20
g5
sg21
I500000
sg22
I1014505
sg23
I0
sg24
I0
sg25
I189041
sg26
I248017
sg27
g32
sg28
I1054637
sg29
I825464
ssS'YEAP SOON'
p357
(dp358
g3
I0
sg4
g5
sg6
g32
sg7
I55097
sg8
I00
sg9
g5
sg10
g5
sg12
g5
sg13
g32
sg14
I0
sg15
g5
sg16
g5
sg17
g5
sg18
I0
sg19
g5
sg20
g5
sg21
g5
sg22
I192758
sg23
I0
sg24
I0
sg25
g5
sg26
g5
sg27
g32
sg28
I55097
sg29
I192758
ssS'MURRAY JULIA H'
p359
(dp360
g3
I2192
sg4
g5
sg6
F0.005018248175182482
sg7
I57580
sg8
I00
sg9
I125000
sg10
S'julia.murray@enron.com'
p361
sg12
g5
sg13
I1
sg14
I1
sg15
g5
sg16
I395
sg17
g5
sg18
I45
sg19
I330
sg20
g5
sg21
I400000
sg22
I597461
sg23
I11
sg24
I2
sg25
I196983
sg26
I229284
sg27
F0.044444444444444446
sg28
I812194
sg29
I400478
ssS'GARLAND C KEVIN'
p362
(dp363
g3
I209
sg4
g5
sg6
F0.04784688995215311
sg7
I48405
sg8
I00
sg9
I375304
sg10
S'kevin.garland@enron.com'
p364
sg12
g5
sg13
I3
sg14
I3
sg15
g5
sg16
I178
sg17
g5
sg18
I44
sg19
I60814
sg20
g5
sg21
I850000
sg22
I896153
sg23
I10
sg24
I27
sg25
I259907
sg26
I231946
sg27
F0.6136363636363636
sg28
I1566469
sg29
I636246
ssS'DODSON KEITH'
p365
(dp366
g3
I176
sg4
g5
sg6
F0.056818181818181816
sg7
I28164
sg8
I00
sg9
g5
sg10
S'keith.dodson@enron.com'
p367
sg12
g5
sg13
I0
sg14
I0
sg15
g5
sg16
I114
sg17
g5
sg18
I14
sg19
I774
sg20
g5
sg21
I70000
sg22
g5
sg23
I10
sg24
I3
sg25
g5
sg26
I221003
sg27
F0.21428571428571427
sg28
I319941
sg29
g5
ssS'YEAGER F SCOTT'
p368
(dp369
g3
I0
sg4
g5
sg6
g32
sg7
I53947
sg8
I01
sg9
g5
sg10
S'scott.yeager@enron.com'
p370
sg12
g5
sg13
g32
sg14
I0
sg15
g5
sg16
g5
sg17
g5
sg18
I0
sg19
I147950
sg20
g5
sg21
g5
sg22
I11884758
sg23
I0
sg24
I0
sg25
I3576206
sg26
I158403
sg27
g32
sg28
I360300
sg29
I8308552
ssS'HIRKO JOSEPH'
p371
(dp372
g3
I0
sg4
I10259
sg6
g32
sg7
I77978
sg8
I01
sg9
g5
sg10
S'joe.hirko@enron.com'
p373
sg12
g5
sg13
g32
sg14
I0
sg15
g5
sg16
g5
sg17
g5
sg18
I0
sg19
I2856
sg20
g5
sg21
g5
sg22
I30766064
sg23
I0
sg24
I0
sg25
g5
sg26
g5
sg27
g32
sg28
I91093
sg29
I30766064
ssS'DIETRICH JANET R'
p374
(dp375
g3
I2572
sg4
g5
sg6
F0.11858475894245724
sg7
I3475
sg8
I00
sg9
I556416
sg10
S'janet.dietrich@enron.com'
p376
sg12
g5
sg13
I2
sg14
I2
sg15
g5
sg16
I1902
sg17
g5
sg18
I63
sg19
I473
sg20
g5
sg21
I600000
sg22
I1865087
sg23
I305
sg24
I14
sg25
I315068
sg26
I250100
sg27
F0.2222222222222222
sg28
I1410464
sg29
I1550019
ssS'DERRICK JR. JAMES V'
p377
(dp378
g3
I2181
sg4
g5
sg6
F0.029344337459880788
sg7
I51124
sg8
I00
sg9
I484000
sg10
S'james.derrick@enron.com'
p379
sg12
I-1284000
sg13
I1
sg14
I1
sg15
I-1787380
sg16
I1401
sg17
g5
sg18
I909
sg19
I7482
sg20
g5
sg21
I800000
sg22
I8831913
sg23
I64
sg24
I20
sg25
I1787380
sg26
I492375
sg27
F0.022002200220022004
sg28
I550981
sg29
I8831913
ssS'FREVERT MARK A'
p380
(dp381
g3
I3275
sg4
I6426990
sg6
F0.07389312977099237
sg7
I86987
sg8
I00
sg9
I1617011
sg10
S'mark.frevert@enron.com'
p382
sg12
I-3367011
sg13
I1
sg14
I1
sg15
g5
sg16
I2979
sg17
I2000000
sg18
I21
sg19
I7427621
sg20
g5
sg21
I2000000
sg22
I14622185
sg23
I242
sg24
I6
sg25
I4188667
sg26
I1060932
sg27
F0.2857142857142857
sg28
I17252530
sg29
I10433518
ssS'PAI LOU L'
p383
(dp384
g3
I0
sg4
g5
sg6
g32
sg7
I32047
sg8
I00
sg9
g5
sg10
S'lou.pai@enron.com'
p385
sg12
g5
sg13
I3
sg14
I3
sg15
g5
sg16
g5
sg17
g5
sg18
I0
sg19
I1829457
sg20
g5
sg21
I1000000
sg22
I23817930
sg23
I0
sg24
I0
sg25
I8453763
sg26
I261879
sg27
g32
sg28
I3123383
sg29
I15364167
ssS'HAYSLETT RODERICK J'
p386
(dp387
g3
I2649
sg4
g5
sg6
F0.01321253303133258
sg7
g5
sg8
I00
sg9
g5
sg10
S'rod.hayslett@enron.com'
p388
sg12
g5
sg13
g32
sg14
I0
sg15
g5
sg16
I571
sg17
g5
sg18
I1061
sg19
g5
sg20
g5
sg21
g5
sg22
I346663
sg23
I35
sg24
I38
sg25
I346663
sg26
g5
sg27
F0.03581526861451461
sg28
g5
sg29
g5
ssS'BAY FRANKLIN R'
p389
(dp390
g3
I0
sg4
I260455
sg6
g32
sg7
I129142
sg8
I00
sg9
g5
sg10
S'frank.bay@enron.com'
p391
sg12
I-201641
sg13
I1
sg14
I1
sg15
I-82782
sg16
g5
sg17
g5
sg18
I0
sg19
I69
sg20
g5
sg21
I400000
sg22
I63014
sg23
I0
sg24
I0
sg25
I145796
sg26
I239671
sg27
g32
sg28
I827696
sg29
g5
ssS'MCCARTY DANNY J'
p392
(dp393
g3
I1433
sg4
g5
sg6
F0.017445917655268667
sg7
g5
sg8
I00
sg9
g5
sg10
S'danny.mccarty@enron.com'
p394
sg12
g5
sg13
g32
sg14
I0
sg15
g5
sg16
I508
sg17
g5
sg18
I215
sg19
g5
sg20
g5
sg21
g5
sg22
I758931
sg23
I25
sg24
I2
sg25
I94556
sg26
g5
sg27
F0.009302325581395349
sg28
g5
sg29
I664375
ssS'FUGH JOHN L'
p395
(dp396
g3
I0
sg4
I50591
sg6
g32
sg7
g5
sg8
I00
sg9
g5
sg10
g5
sg12
g5
sg13
g32
sg14
I0
sg15
g5
sg16
g5
sg17
g5
sg18
I0
sg19
g5
sg20
g5
sg21
g5
sg22
I176378
sg23
I0
sg24
I0
sg25
g5
sg26
g5
sg27
g32
sg28
I50591
sg29
I176378
ssS'SCRIMSHAW MATTHEW'
p397
(dp398
g3
I0
sg4
g5
sg6
g32
sg7
g5
sg8
I00
sg9
g5
sg10
S'matthew.scrimshaw@enron.com'
p399
sg12
g5
sg13
g32
sg14
I0
sg15
g5
sg16
g5
sg17
g5
sg18
I0
sg19
g5
sg20
g5
sg21
g5
sg22
I759557
sg23
I0
sg24
I0
sg25
g5
sg26
g5
sg27
g32
sg28
g5
sg29
I759557
ssS'KOENIG MARK E'
p400
(dp401
g3
I2374
sg4
g5
sg6
F0.02232518955349621
sg7
I127017
sg8
I01
sg9
I300000
sg10
S'mark.koenig@enron.com'
p402
sg12
g5
sg13
I2
sg14
I2
sg15
g5
sg16
I2271
sg17
g5
sg18
I61
sg19
I150458
sg20
g5
sg21
I700000
sg22
I1920055
sg23
I53
sg24
I15
sg25
I1248318
sg26
I309946
sg27
F0.2459016393442623
sg28
I1587421
sg29
I671737
ssS'SAVAGE FRANK'
p403
(dp404
g3
I0
sg4
g5
sg6
g32
sg7
g5
sg8
I00
sg9
g5
sg10
g5
sg12
I-121284
sg13
g32
sg14
I0
sg15
g5
sg16
g5
sg17
g5
sg18
I0
sg19
g5
sg20
I125034
sg21
g5
sg22
g5
sg23
I0
sg24
I0
sg25
g5
sg26
g5
sg27
g32
sg28
I3750
sg29
g5
ssS'IZZO LAWRENCE L'
p405
(dp406
g3
I496
sg4
g5
sg6
F0.056451612903225805
sg7
I28093
sg8
I00
sg9
I312500
sg10
S'larry.izzo@enron.com'
p407
sg12
g5
sg13
g32
sg14
I0
sg15
g5
sg16
I437
sg17
g5
sg18
I19
sg19
I1553729
sg20
g5
sg21
g5
sg22
I5819980
sg23
I28
sg24
I5
sg25
I3654808
sg26
I85274
sg27
F0.2631578947368421
sg28
I1979596
sg29
I2165172
ssS'TILNEY ELIZABETH A'
p408
(dp409
g3
I460
sg4
g5
sg6
F0.021739130434782608
sg7
g5
sg8
I00
sg9
I275000
sg10
S'elizabeth.tilney@enron.com'
p410
sg12
I-575000
sg13
I1
sg14
I1
sg15
g5
sg16
I379
sg17
g5
sg18
I19
sg19
I152055
sg20
g5
sg21
I300000
sg22
I1168042
sg23
I10
sg24
I11
sg25
I576792
sg26
I247338
sg27
F0.5789473684210527
sg28
I399393
sg29
I591250
ssS'MARTIN AMANDA K'
p411
(dp412
g3
I1522
sg4
I85430
sg6
F0.005256241787122208
sg7
I8211
sg8
I00
sg9
I5145434
sg10
S'a..martin@enron.com'
p413
sg12
g5
sg13
g32
sg14
I0
sg15
g5
sg16
I477
sg17
g5
sg18
I230
sg19
I2818454
sg20
g5
sg21
g5
sg22
I2070306
sg23
I8
sg24
I0
sg25
g5
sg26
I349487
sg27
g32
sg28
I8407016
sg29
I2070306
ssS'BUY RICHARD B'
p414
(dp415
g3
I3523
sg4
I649584
sg6
F0.04428044280442804
sg7
g5
sg8
I00
sg9
I769862
sg10
S'rick.buy@enron.com'
p416
sg12
I-694862
sg13
I2
sg14
I2
sg15
g5
sg16
I2333
sg17
g5
sg18
I1053
sg19
I400572
sg20
g5
sg21
I900000
sg22
I3444470
sg23
I156
sg24
I71
sg25
I901657
sg26
I330546
sg27
F0.06742640075973409
sg28
I2355702
sg29
I2542813
ssS'GRAMM WENDY L'
p417
(dp418
g3
I0
sg4
g5
sg6
g32
sg7
g5
sg8
I00
sg9
g5
sg10
g5
sg12
g5
sg13
g32
sg14
I0
sg15
g5
sg16
g5
sg17
g5
sg18
I0
sg19
g5
sg20
I119292
sg21
g5
sg22
g5
sg23
I0
sg24
I0
sg25
g5
sg26
g5
sg27
g32
sg28
I119292
sg29
g5
ssS'CAUSEY RICHARD A'
p419
(dp420
g3
I1892
sg4
g5
sg6
F0.0306553911205074
sg7
I30674
sg8
I01
sg9
I350000
sg10
S'richard.causey@enron.com'
p421
sg12
I-235000
sg13
I2
sg14
I2
sg15
g5
sg16
I1585
sg17
g5
sg18
I49
sg19
I307895
sg20
g5
sg21
I1000000
sg22
I2502063
sg23
I58
sg24
I12
sg25
I2502063
sg26
I415189
sg27
F0.24489795918367346
sg28
I1868758
sg29
g5
ssS'TAYLOR MITCHELL S'
p422
(dp423
g3
I533
sg4
I227449
sg6
g32
sg7
g5
sg8
I00
sg9
g5
sg10
S'mitchell.taylor@enron.com'
p424
sg12
g5
sg13
I2
sg14
I2
sg15
g5
sg16
I300
sg17
g5
sg18
I29
sg19
g5
sg20
g5
sg21
I600000
sg22
I3745048
sg23
I0
sg24
I0
sg25
I563798
sg26
I265214
sg27
g32
sg28
I1092663
sg29
I3181250
ssS'DONAHUE JR JEFFREY M'
p425
(dp426
g3
I865
sg4
g5
sg6
F0.21734104046242775
sg7
I96268
sg8
I00
sg9
g5
sg10
S'jeff.donahue@enron.com'
p427
sg12
I-300000
sg13
I2
sg14
I2
sg15
g5
sg16
I772
sg17
g5
sg18
I22
sg19
I891
sg20
g5
sg21
I800000
sg22
I1080988
sg23
I188
sg24
I11
sg25
I315068
sg26
I278601
sg27
F0.5
sg28
I875760
sg29
I765920
ssS'GLISAN JR BEN F'
p428
(dp429
g3
I873
sg4
g5
sg6
F0.05956471935853379
sg7
I125978
sg8
I01
sg9
I71023
sg10
S'ben.glisan@enron.com'
p430
sg12
g5
sg13
I2
sg14
I2
sg15
g5
sg16
I874
sg17
g5
sg18
I16
sg19
I200308
sg20
g5
sg21
I600000
sg22
I778546
sg23
I52
sg24
I6
sg25
I393818
sg26
I274975
sg27
F0.375
sg28
I1272284
sg29
I384728
ss.